target datalayout = "e-m:e-p270:32:32-p271:32:32-p272:64:64-i64:64-i128:128-f80:128-n8:16:32:64-S128"
target triple = "x86_64-unknown-linux-gnu"

@_ZN7rocksdb22BlockBasedTableFactoryC1ERKNS_22BlockBasedTableOptionsE = unnamed_addr alias void (ptr, ptr), ptr @_ZN7rocksdb22BlockBasedTableFactoryC2ERKNS_22BlockBasedTableOptionsE

; Function Attrs: mustprogress uwtable
define noundef ptr @_ZN7rocksdb25NewBlockBasedTableFactoryERKNS_22BlockBasedTableOptionsE(ptr noundef nonnull align 8 dereferenceable(248) %_table_options) #0 personality ptr @__gxx_personality_v0 {
entry:
  %_table_options.addr = alloca ptr, align 8
  %exn.slot = alloca ptr, align 8
  %ehselector.slot = alloca i32, align 4
  store ptr %_table_options, ptr %_table_options.addr, align 8
  %call = call noalias noundef nonnull ptr @_Znwm(i64 noundef 608) #19
  %0 = load ptr, ptr %_table_options.addr, align 8
  invoke void @_ZN7rocksdb22BlockBasedTableFactoryC1ERKNS_22BlockBasedTableOptionsE(ptr noundef nonnull align 8 dereferenceable(608) %call, ptr noundef nonnull align 8 dereferenceable(248) %0)
          to label %invoke.cont unwind label %lpad

invoke.cont:                                      ; preds = %entry
  ret ptr %call

lpad:                                             ; preds = %entry
  %1 = landingpad { ptr, i32 }
          cleanup
  %2 = extractvalue { ptr, i32 } %1, 0
  store ptr %2, ptr %exn.slot, align 8
  %3 = extractvalue { ptr, i32 } %1, 1
  store i32 %3, ptr %ehselector.slot, align 4
  call void @_ZdlPv(ptr noundef %call) #20
  br label %eh.resume

eh.resume:                                        ; preds = %lpad
  %exn = load ptr, ptr %exn.slot, align 8
  %sel = load i32, ptr %ehselector.slot, align 4
  %lpad.val = insertvalue { ptr, i32 } poison, ptr %exn, 0
  %lpad.val1 = insertvalue { ptr, i32 } %lpad.val, i32 %sel, 1
  resume { ptr, i32 } %lpad.val1
}