; Function Attrs: mustprogress uwtable
define noundef ptr @_ZN7rocksdb25NewBlockBasedTableFactoryERKNS_22BlockBasedTableOptionsE(ptr noundef nonnull align 8 dereferenceable(248) %_table_options) local_unnamed_addr #2 personality ptr @__gxx_personality_v0 {
entry:
  %call = tail call noalias noundef nonnull dereferenceable(608) ptr @_Znwm(i64 noundef 608) #24
  invoke void @_ZN7rocksdb22BlockBasedTableFactoryC1ERKNS_22BlockBasedTableOptionsE(ptr noundef nonnull align 8 dereferenceable(608) %call, ptr noundef nonnull align 8 dereferenceable(248) %_table_options)
          to label %invoke.cont unwind label %lpad

invoke.cont:                                      ; preds = %entry
  ret ptr %call

lpad:                                             ; preds = %entry
  %0 = landingpad { ptr, i32 }
          cleanup
  tail call void @_ZdlPv(ptr noundef nonnull %call) #21
  resume { ptr, i32 } %0
}